target datalayout = "e-m:e-p270:32:32-p271:32:32-p272:64:64-i64:64-i128:128-f80:128-n8:16:32:64-S128"
target triple = "x86_64-pc-linux-gnu"

@HistoricSnapshot = internal global ptr null, align 8

; Function Attrs: nounwind uwtable
define dso_local zeroext i1 @HistoricSnapshotActive() #0 {
  %1 = load ptr, ptr @HistoricSnapshot, align 8
  %2 = icmp ne ptr %1, null
  ret i1 %2
}

; Function Attrs: nounwind uwtable
define dso_local ptr @GetCatalogSnapshot(i32 noundef %0) #0 {
  %2 = alloca ptr, align 8
  %3 = alloca i32, align 4
  store i32 %0, ptr %3, align 4
  %4 = call zeroext i1 @HistoricSnapshotActive()
  br i1 %4, label %5, label %7

5:                                                ; preds = %1
  %6 = load ptr, ptr @HistoricSnapshot, align 8
  store ptr %6, ptr %2, align 8
  br label %10

7:                                                ; preds = %1
  %8 = load i32, ptr %3, align 4
  %9 = call ptr @GetNonHistoricCatalogSnapshot(i32 noundef %8)
  store ptr %9, ptr %2, align 8
  br label %10

10:                                               ; preds = %7, %5
  %11 = load ptr, ptr %2, align 8
  ret ptr %11
}